target datalayout = "e-m:e-p270:32:32-p271:32:32-p272:64:64-i64:64-i128:128-f80:128-n8:16:32:64-S128"
target triple = "x86_64-pc-linux-gnu"

%struct.Py_complex = type { double, double }

@tanh_special_values = internal global [7 x [7 x %struct.Py_complex]] zeroinitializer, align 16

; Function Attrs: nounwind uwtable
define internal i32 @special_type(double noundef %0) #0 {
  %2 = alloca i32, align 4
  %3 = alloca double, align 8
  store double %0, ptr %3, align 8, !tbaa !9
  %4 = load double, ptr %3, align 8, !tbaa !9
  %5 = call i1 @llvm.is.fpclass.f64(double %4, i32 504)
  br i1 %5, label %6, label %21

6:                                                ; preds = %1
  %7 = load double, ptr %3, align 8, !tbaa !9
  %8 = fcmp une double %7, 0.000000e+00
  br i1 %8, label %9, label %15

9:                                                ; preds = %6
  %10 = load double, ptr %3, align 8, !tbaa !9
  %11 = call double @llvm.copysign.f64(double 1.000000e+00, double %10)
  %12 = fcmp oeq double %11, 1.000000e+00
  br i1 %12, label %13, label %14

13:                                               ; preds = %9
  store i32 4, ptr %2, align 4
  br label %31

14:                                               ; preds = %9
  store i32 1, ptr %2, align 4
  br label %31

15:                                               ; preds = %6
  %16 = load double, ptr %3, align 8, !tbaa !9
  %17 = call double @llvm.copysign.f64(double 1.000000e+00, double %16)
  %18 = fcmp oeq double %17, 1.000000e+00
  br i1 %18, label %19, label %20

19:                                               ; preds = %15
  store i32 3, ptr %2, align 4
  br label %31

20:                                               ; preds = %15
  store i32 2, ptr %2, align 4
  br label %31

21:                                               ; preds = %1
  %22 = load double, ptr %3, align 8, !tbaa !9
  %23 = call i1 @llvm.is.fpclass.f64(double %22, i32 3)
  br i1 %23, label %24, label %25

24:                                               ; preds = %21
  store i32 6, ptr %2, align 4
  br label %31

25:                                               ; preds = %21
  %26 = load double, ptr %3, align 8, !tbaa !9
  %27 = call double @llvm.copysign.f64(double 1.000000e+00, double %26)
  %28 = fcmp oeq double %27, 1.000000e+00
  br i1 %28, label %29, label %30

29:                                               ; preds = %25
  store i32 5, ptr %2, align 4
  br label %31

30:                                               ; preds = %25
  store i32 0, ptr %2, align 4
  br label %31

31:                                               ; preds = %30, %29, %24, %20, %19, %14, %13
  %32 = load i32, ptr %2, align 4
  ret i32 %32
}

; Function Attrs: nounwind uwtable
define internal { double, double } @cmath_tanh_impl(ptr noundef %0, double %1, double %2) #0 {
  %4 = alloca %struct.Py_complex, align 8
  %5 = alloca %struct.Py_complex, align 8
  %6 = alloca ptr, align 8
  %7 = alloca double, align 8
  %8 = alloca double, align 8
  %9 = alloca double, align 8
  %10 = alloca double, align 8
  %11 = alloca double, align 8
  %12 = alloca i32, align 4
  %13 = getelementptr inbounds nuw { double, double }, ptr %5, i32 0, i32 0
  store double %1, ptr %13, align 8
  %14 = getelementptr inbounds nuw { double, double }, ptr %5, i32 0, i32 1
  store double %2, ptr %14, align 8
  store ptr %0, ptr %6, align 8, !tbaa !3
  call void @llvm.lifetime.start.p0(i64 8, ptr %7) #8
  call void @llvm.lifetime.start.p0(i64 8, ptr %8) #8
  call void @llvm.lifetime.start.p0(i64 8, ptr %9) #8
  call void @llvm.lifetime.start.p0(i64 8, ptr %10) #8
  call void @llvm.lifetime.start.p0(i64 8, ptr %11) #8
  %15 = getelementptr inbounds nuw %struct.Py_complex, ptr %5, i32 0, i32 0
  %16 = load double, ptr %15, align 8, !tbaa !17
  %17 = call i1 @llvm.is.fpclass.f64(double %16, i32 504)
  br i1 %17, label %18, label %22

18:                                               ; preds = %3
  %19 = getelementptr inbounds nuw %struct.Py_complex, ptr %5, i32 0, i32 1
  %20 = load double, ptr %19, align 8, !tbaa !19
  %21 = call i1 @llvm.is.fpclass.f64(double %20, i32 504)
  br i1 %21, label %99, label %22

22:                                               ; preds = %18, %3
  %23 = getelementptr inbounds nuw %struct.Py_complex, ptr %5, i32 0, i32 0
  %24 = load double, ptr %23, align 8, !tbaa !17
  %25 = call double @llvm.fabs.f64(double %24) #10
  %26 = fcmp oeq double %25, 0x7FF0000000000000
  %27 = bitcast double %24 to i64
  %28 = icmp slt i64 %27, 0
  %29 = select i1 %28, i32 -1, i32 1
  %30 = select i1 %26, i32 %29, i32 0
  %31 = icmp ne i32 %30, 0
  br i1 %31, label %32, label %69

32:                                               ; preds = %22
  %33 = getelementptr inbounds nuw %struct.Py_complex, ptr %5, i32 0, i32 1
  %34 = load double, ptr %33, align 8, !tbaa !19
  %35 = call i1 @llvm.is.fpclass.f64(double %34, i32 504)
  br i1 %35, label %36, label %69

36:                                               ; preds = %32
  %37 = getelementptr inbounds nuw %struct.Py_complex, ptr %5, i32 0, i32 1
  %38 = load double, ptr %37, align 8, !tbaa !19
  %39 = fcmp une double %38, 0.000000e+00
  br i1 %39, label %40, label %69

40:                                               ; preds = %36
  %41 = getelementptr inbounds nuw %struct.Py_complex, ptr %5, i32 0, i32 0
  %42 = load double, ptr %41, align 8, !tbaa !17
  %43 = fcmp ogt double %42, 0.000000e+00
  br i1 %43, label %44, label %56

44:                                               ; preds = %40
  %45 = getelementptr inbounds nuw %struct.Py_complex, ptr %4, i32 0, i32 0
  store double 1.000000e+00, ptr %45, align 8, !tbaa !17
  %46 = getelementptr inbounds nuw %struct.Py_complex, ptr %5, i32 0, i32 1
  %47 = load double, ptr %46, align 8, !tbaa !19
  %48 = call double @sin(double noundef %47) #8, !tbaa !11
  %49 = fmul double 2.000000e+00, %48
  %50 = getelementptr inbounds nuw %struct.Py_complex, ptr %5, i32 0, i32 1
  %51 = load double, ptr %50, align 8, !tbaa !19
  %52 = call double @cos(double noundef %51) #8, !tbaa !11
  %53 = fmul double %49, %52
  %54 = call double @llvm.copysign.f64(double 0.000000e+00, double %53)
  %55 = getelementptr inbounds nuw %struct.Py_complex, ptr %4, i32 0, i32 1
  store double %54, ptr %55, align 8, !tbaa !19
  br label %68

56:                                               ; preds = %40
  %57 = getelementptr inbounds nuw %struct.Py_complex, ptr %4, i32 0, i32 0
  store double -1.000000e+00, ptr %57, align 8, !tbaa !17
  %58 = getelementptr inbounds nuw %struct.Py_complex, ptr %5, i32 0, i32 1
  %59 = load double, ptr %58, align 8, !tbaa !19
  %60 = call double @sin(double noundef %59) #8, !tbaa !11
  %61 = fmul double 2.000000e+00, %60
  %62 = getelementptr inbounds nuw %struct.Py_complex, ptr %5, i32 0, i32 1
  %63 = load double, ptr %62, align 8, !tbaa !19
  %64 = call double @cos(double noundef %63) #8, !tbaa !11
  %65 = fmul double %61, %64
  %66 = call double @llvm.copysign.f64(double 0.000000e+00, double %65)
  %67 = getelementptr inbounds nuw %struct.Py_complex, ptr %4, i32 0, i32 1
  store double %66, ptr %67, align 8, !tbaa !19
  br label %68

68:                                               ; preds = %56, %44
  br label %80

69:                                               ; preds = %36, %32, %22
  %70 = getelementptr inbounds nuw %struct.Py_complex, ptr %5, i32 0, i32 0
  %71 = load double, ptr %70, align 8, !tbaa !17
  %72 = call i32 @special_type(double noundef %71)
  %73 = zext i32 %72 to i64
  %74 = getelementptr [7 x [7 x %struct.Py_complex]], ptr @tanh_special_values, i64 0, i64 %73
  %75 = getelementptr inbounds nuw %struct.Py_complex, ptr %5, i32 0, i32 1
  %76 = load double, ptr %75, align 8, !tbaa !19
  %77 = call i32 @special_type(double noundef %76)
  %78 = zext i32 %77 to i64
  %79 = getelementptr [7 x %struct.Py_complex], ptr %74, i64 0, i64 %78
  call void @llvm.memcpy.p0.p0.i64(ptr align 8 %4, ptr align 16 %79, i64 16, i1 false), !tbaa.struct !8
  br label %80

80:                                               ; preds = %69, %68
  %81 = getelementptr inbounds nuw %struct.Py_complex, ptr %5, i32 0, i32 1
  %82 = load double, ptr %81, align 8, !tbaa !19
  %83 = call double @llvm.fabs.f64(double %82) #10
  %84 = fcmp oeq double %83, 0x7FF0000000000000
  %85 = bitcast double %82 to i64
  %86 = icmp slt i64 %85, 0
  %87 = select i1 %86, i32 -1, i32 1
  %88 = select i1 %84, i32 %87, i32 0
  %89 = icmp ne i32 %88, 0
  br i1 %89, label %90, label %96

90:                                               ; preds = %80
  %91 = getelementptr inbounds nuw %struct.Py_complex, ptr %5, i32 0, i32 0
  %92 = load double, ptr %91, align 8, !tbaa !17
  %93 = call i1 @llvm.is.fpclass.f64(double %92, i32 504)
  br i1 %93, label %94, label %96

94:                                               ; preds = %90
  %95 = call ptr @__errno_location() #9
  store i32 33, ptr %95, align 4, !tbaa !11
  br label %98

96:                                               ; preds = %90, %80
  %97 = call ptr @__errno_location() #9
  store i32 0, ptr %97, align 4, !tbaa !11
  br label %98

98:                                               ; preds = %96, %94
  store i32 1, ptr %12, align 4
  br label %160

99:                                               ; preds = %18
  %100 = getelementptr inbounds nuw %struct.Py_complex, ptr %5, i32 0, i32 0
  %101 = load double, ptr %100, align 8, !tbaa !17
  %102 = call double @llvm.fabs.f64(double %101)
  %103 = call double @log(double noundef 0x7FCFFFFFFFFFFFFF) #8, !tbaa !11
  %104 = fcmp ogt double %102, %103
  br i1 %104, label %105, label %125

105:                                              ; preds = %99
  %106 = getelementptr inbounds nuw %struct.Py_complex, ptr %5, i32 0, i32 0
  %107 = load double, ptr %106, align 8, !tbaa !17
  %108 = call double @llvm.copysign.f64(double 1.000000e+00, double %107)
  %109 = getelementptr inbounds nuw %struct.Py_complex, ptr %4, i32 0, i32 0
  store double %108, ptr %109, align 8, !tbaa !17
  %110 = getelementptr inbounds nuw %struct.Py_complex, ptr %5, i32 0, i32 1
  %111 = load double, ptr %110, align 8, !tbaa !19
  %112 = call double @sin(double noundef %111) #8, !tbaa !11
  %113 = fmul double 4.000000e+00, %112
  %114 = getelementptr inbounds nuw %struct.Py_complex, ptr %5, i32 0, i32 1
  %115 = load double, ptr %114, align 8, !tbaa !19
  %116 = call double @cos(double noundef %115) #8, !tbaa !11
  %117 = fmul double %113, %116
  %118 = getelementptr inbounds nuw %struct.Py_complex, ptr %5, i32 0, i32 0
  %119 = load double, ptr %118, align 8, !tbaa !17
  %120 = call double @llvm.fabs.f64(double %119)
  %121 = fmul double -2.000000e+00, %120
  %122 = call double @exp(double noundef %121) #8, !tbaa !11
  %123 = fmul double %117, %122
  %124 = getelementptr inbounds nuw %struct.Py_complex, ptr %4, i32 0, i32 1
  store double %123, ptr %124, align 8, !tbaa !19
  br label %158

125:                                              ; preds = %99
  %126 = getelementptr inbounds nuw %struct.Py_complex, ptr %5, i32 0, i32 0
  %127 = load double, ptr %126, align 8, !tbaa !17
  %128 = call double @tanh(double noundef %127) #8, !tbaa !11
  store double %128, ptr %7, align 8, !tbaa !9
  %129 = getelementptr inbounds nuw %struct.Py_complex, ptr %5, i32 0, i32 1
  %130 = load double, ptr %129, align 8, !tbaa !19
  %131 = call double @tan(double noundef %130) #8, !tbaa !11
  store double %131, ptr %8, align 8, !tbaa !9
  %132 = getelementptr inbounds nuw %struct.Py_complex, ptr %5, i32 0, i32 0
  %133 = load double, ptr %132, align 8, !tbaa !17
  %134 = call double @cosh(double noundef %133) #8, !tbaa !11
  %135 = fdiv double 1.000000e+00, %134
  store double %135, ptr %9, align 8, !tbaa !9
  %136 = load double, ptr %7, align 8, !tbaa !9
  %137 = load double, ptr %8, align 8, !tbaa !9
  %138 = fmul double %136, %137
  store double %138, ptr %10, align 8, !tbaa !9
  %139 = load double, ptr %10, align 8, !tbaa !9
  %140 = load double, ptr %10, align 8, !tbaa !9
  %141 = call double @llvm.fmuladd.f64(double %139, double %140, double 1.000000e+00)
  store double %141, ptr %11, align 8, !tbaa !9
  %142 = load double, ptr %7, align 8, !tbaa !9
  %143 = load double, ptr %8, align 8, !tbaa !9
  %144 = load double, ptr %8, align 8, !tbaa !9
  %145 = call double @llvm.fmuladd.f64(double %143, double %144, double 1.000000e+00)
  %146 = fmul double %142, %145
  %147 = load double, ptr %11, align 8, !tbaa !9
  %148 = fdiv double %146, %147
  %149 = getelementptr inbounds nuw %struct.Py_complex, ptr %4, i32 0, i32 0
  store double %148, ptr %149, align 8, !tbaa !17
  %150 = load double, ptr %8, align 8, !tbaa !9
  %151 = load double, ptr %11, align 8, !tbaa !9
  %152 = fdiv double %150, %151
  %153 = load double, ptr %9, align 8, !tbaa !9
  %154 = fmul double %152, %153
  %155 = load double, ptr %9, align 8, !tbaa !9
  %156 = fmul double %154, %155
  %157 = getelementptr inbounds nuw %struct.Py_complex, ptr %4, i32 0, i32 1
  store double %156, ptr %157, align 8, !tbaa !19
  br label %158

158:                                              ; preds = %125, %105
  %159 = call ptr @__errno_location() #9
  store i32 0, ptr %159, align 4, !tbaa !11
  store i32 1, ptr %12, align 4
  br label %160

160:                                              ; preds = %158, %98
  call void @llvm.lifetime.end.p0(i64 8, ptr %11) #8
  call void @llvm.lifetime.end.p0(i64 8, ptr %10) #8
  call void @llvm.lifetime.end.p0(i64 8, ptr %9) #8
  call void @llvm.lifetime.end.p0(i64 8, ptr %8) #8
  call void @llvm.lifetime.end.p0(i64 8, ptr %7) #8
  %161 = load { double, double }, ptr %4, align 8
  ret { double, double } %161
}