; Function Attrs: mustprogress nofree nounwind willreturn memory(readwrite, argmem: write, inaccessiblemem: write) uwtable
define internal fastcc { double, double } @cmath_tanh_impl(double %0, double %1) unnamed_addr #8 {
  %3 = tail call double @llvm.fabs.f64(double %0)
  %4 = fcmp ueq double %3, 0x7FF0000000000000
  %5 = tail call double @llvm.fabs.f64(double %1)
  %6 = fcmp ueq double %5, 0x7FF0000000000000
  %or.cond37 = select i1 %4, i1 true, i1 %6
  br i1 %or.cond37, label %7, label %46

7:                                                ; preds = %2
  %8 = fcmp oeq double %3, 0x7FF0000000000000
  br i1 %8, label %9, label %17

9:                                                ; preds = %7
  %or.cond = tail call i1 @llvm.is.fpclass.f64(double %1, i32 408)
  br i1 %or.cond, label %10, label %17

10:                                               ; preds = %9
  %11 = fcmp ogt double %0, 0.000000e+00
  %12 = tail call double @sin(double noundef %1) #11, !tbaa !3
  %13 = fmul double %12, 2.000000e+00
  %14 = tail call double @cos(double noundef %1) #11, !tbaa !3
  %15 = fmul double %13, %14
  %16 = tail call double @llvm.copysign.f64(double 0.000000e+00, double %15)
  %. = select i1 %11, double 1.000000e+00, double -1.000000e+00
  br label %41

17:                                               ; preds = %9, %7
  br i1 %4, label %24, label %18

18:                                               ; preds = %17
  %19 = fcmp une double %0, 0.000000e+00
  %20 = tail call double @llvm.copysign.f64(double 1.000000e+00, double %0)
  %21 = fcmp oeq double %20, 1.000000e+00
  br i1 %19, label %22, label %23

22:                                               ; preds = %18
  %..i = select i1 %21, i64 4, i64 1
  br label %special_type.exit

23:                                               ; preds = %18
  %.7.i = select i1 %21, i64 3, i64 2
  br label %special_type.exit

24:                                               ; preds = %17
  %25 = fcmp uno double %0, 0.000000e+00
  br i1 %25, label %special_type.exit, label %26

26:                                               ; preds = %24
  %27 = tail call double @llvm.copysign.f64(double 1.000000e+00, double %0)
  %28 = fcmp oeq double %27, 1.000000e+00
  %.8.i = select i1 %28, i64 5, i64 0
  br label %special_type.exit

special_type.exit:                                ; preds = %22, %23, %24, %26
  %.0.i = phi i64 [ %..i, %22 ], [ %.7.i, %23 ], [ 6, %24 ], [ %.8.i, %26 ]
  br i1 %6, label %35, label %29

29:                                               ; preds = %special_type.exit
  %30 = fcmp une double %1, 0.000000e+00
  %31 = tail call double @llvm.copysign.f64(double 1.000000e+00, double %1)
  %32 = fcmp oeq double %31, 1.000000e+00
  br i1 %30, label %33, label %34

33:                                               ; preds = %29
  %..i42 = select i1 %32, i64 4, i64 1
  br label %special_type.exit44

34:                                               ; preds = %29
  %.7.i40 = select i1 %32, i64 3, i64 2
  br label %special_type.exit44

35:                                               ; preds = %special_type.exit
  %36 = fcmp uno double %1, 0.000000e+00
  br i1 %36, label %special_type.exit44, label %37

37:                                               ; preds = %35
  %38 = tail call double @llvm.copysign.f64(double 1.000000e+00, double %1)
  %39 = fcmp oeq double %38, 1.000000e+00
  %.8.i43 = select i1 %39, i64 5, i64 0
  br label %special_type.exit44

special_type.exit44:                              ; preds = %33, %34, %35, %37
  %.0.i41 = phi i64 [ %..i42, %33 ], [ %.7.i40, %34 ], [ 6, %35 ], [ %.8.i43, %37 ]
  %40 = getelementptr [7 x [7 x %struct.Py_complex]], ptr @tanh_special_values, i64 0, i64 %.0.i, i64 %.0.i41
  %.sroa.034.0.copyload = load double, ptr %40, align 16, !tbaa !7
  %.sroa.6.0..sroa_idx = getelementptr inbounds nuw i8, ptr %40, i64 8
  %.sroa.6.0.copyload = load double, ptr %.sroa.6.0..sroa_idx, align 8, !tbaa !7
  br label %41

41:                                               ; preds = %10, %special_type.exit44
  %.sroa.034.0 = phi double [ %.sroa.034.0.copyload, %special_type.exit44 ], [ %., %10 ]
  %.sroa.6.0 = phi double [ %.sroa.6.0.copyload, %special_type.exit44 ], [ %16, %10 ]
  %42 = fcmp une double %5, 0x7FF0000000000000
  %brmerge = or i1 %4, %42
  %43 = tail call ptr @__errno_location() #12
  br i1 %brmerge, label %45, label %44

44:                                               ; preds = %41
  store i32 33, ptr %43, align 4, !tbaa !3
  br label %72

45:                                               ; preds = %41
  store i32 0, ptr %43, align 4, !tbaa !3
  br label %72

46:                                               ; preds = %2
  %47 = fcmp ogt double %3, 0x4086232BDD7ABCD2
  br i1 %47, label %48, label %57

48:                                               ; preds = %46
  %49 = tail call double @llvm.copysign.f64(double 1.000000e+00, double %0)
  %50 = tail call double @sin(double noundef %1) #11, !tbaa !3
  %51 = fmul double %50, 4.000000e+00
  %52 = tail call double @cos(double noundef %1) #11, !tbaa !3
  %53 = fmul double %51, %52
  %54 = fmul double %3, -2.000000e+00
  %55 = tail call double @exp(double noundef %54) #11, !tbaa !3
  %56 = fmul double %53, %55
  br label %70

57:                                               ; preds = %46
  %58 = tail call double @tanh(double noundef %0) #11, !tbaa !3
  %59 = tail call double @tan(double noundef %1) #11, !tbaa !3
  %60 = tail call double @cosh(double noundef %0) #11, !tbaa !3
  %61 = fdiv double 1.000000e+00, %60
  %62 = fmul double %58, %59
  %63 = tail call double @llvm.fmuladd.f64(double %62, double %62, double 1.000000e+00)
  %64 = tail call double @llvm.fmuladd.f64(double %59, double %59, double 1.000000e+00)
  %65 = fmul double %58, %64
  %66 = fdiv double %65, %63
  %67 = fdiv double %59, %63
  %68 = fmul double %61, %67
  %69 = fmul double %61, %68
  br label %70

70:                                               ; preds = %57, %48
  %.sroa.034.2 = phi double [ %49, %48 ], [ %66, %57 ]
  %.sroa.6.2 = phi double [ %56, %48 ], [ %69, %57 ]
  %71 = tail call ptr @__errno_location() #12
  store i32 0, ptr %71, align 4, !tbaa !3
  br label %72

72:                                               ; preds = %44, %45, %70
  %.sroa.034.1 = phi double [ %.sroa.034.2, %70 ], [ %.sroa.034.0, %45 ], [ %.sroa.034.0, %44 ]
  %.sroa.6.1 = phi double [ %.sroa.6.2, %70 ], [ %.sroa.6.0, %45 ], [ %.sroa.6.0, %44 ]
  %.fca.0.insert = insertvalue { double, double } poison, double %.sroa.034.1, 0
  %.fca.1.insert = insertvalue { double, double } %.fca.0.insert, double %.sroa.6.1, 1
  ret { double, double } %.fca.1.insert
}